target datalayout = "e-m:e-p270:32:32-p271:32:32-p272:64:64-i64:64-i128:128-f80:128-n8:16:32:64-S128"
target triple = "x86_64-pc-linux-gnu"

@.str.222 = private unnamed_addr constant [15 x i8] c"Aeron Protocol\00", align 1
@.str.223 = private unnamed_addr constant [6 x i8] c"Aeron\00", align 1
@.str.224 = private unnamed_addr constant [6 x i8] c"aeron\00", align 1
@proto_aeron = internal global i32 0, align 4
@.str.225 = private unnamed_addr constant [18 x i8] c"aeron_msg_payload\00", align 1
@.str.226 = private unnamed_addr constant [19 x i8] c"Aeron Data payload\00", align 1
@aeron_heuristic_subdissector_list = internal global ptr null, align 8
@aeron_dissector_handle = internal global ptr null, align 8
@.str.227 = private unnamed_addr constant [18 x i8] c"sequence_analysis\00", align 1
@.str.228 = private unnamed_addr constant [29 x i8] c"Analyze transport sequencing\00", align 1
@.str.229 = private unnamed_addr constant [98 x i8] c"Include next/previous frame for channel, stream, and term, and other transport sequence analysis.\00", align 1
@aeron_sequence_analysis = internal global i8 0, align 1
@.str.230 = private unnamed_addr constant [16 x i8] c"stream_analysis\00", align 1
@.str.231 = private unnamed_addr constant [26 x i8] c"Analyze stream sequencing\00", align 1
@.str.232 = private unnamed_addr constant [111 x i8] c"Include stream analysis, tracking publisher and subscriber positions. Requires \22Analyze transport sequencing\22.\00", align 1
@aeron_stream_analysis = internal global i8 0, align 1
@.str.233 = private unnamed_addr constant [21 x i8] c"reassemble_fragments\00", align 1
@.str.234 = private unnamed_addr constant [27 x i8] c"Reassemble fragmented data\00", align 1
@.str.235 = private unnamed_addr constant [110 x i8] c"Reassemble fragmented data messages. Requires \22Analyze transport sequencing\22 and \22Analyze stream sequencing\22.\00", align 1
@aeron_reassemble_fragments = internal global i8 0, align 1
@.str.236 = private unnamed_addr constant [28 x i8] c"use_heuristic_subdissectors\00", align 1
@.str.237 = private unnamed_addr constant [29 x i8] c"Use heuristic sub-dissectors\00", align 1
@.str.238 = private unnamed_addr constant [173 x i8] c"Use a registered heuristic sub-dissector to decode the payload data. Requires \22Analyze transport sequencing\22, \22Analyze stream sequencing\22, and \22Reassemble fragmented data\22.\00", align 1
@aeron_use_heuristic_subdissectors = internal global i8 0, align 1
@aeron_frame_info_tree = internal global ptr null, align 8

; Function Attrs: null_pointer_is_valid sspstrong uwtable
define hidden void @proto_register_aeron() #0 {
  %1 = alloca ptr, align 8
  %2 = alloca ptr, align 8
  call void @llvm.lifetime.start.p0(i64 8, ptr %1) #15
  call void @llvm.lifetime.start.p0(i64 8, ptr %2) #15
  %3 = call i32 @proto_register_protocol(ptr noundef @.str.222, ptr noundef @.str.223, ptr noundef @.str.224)
  store i32 %3, ptr @proto_aeron, align 4
  %4 = load i32, ptr @proto_aeron, align 4
  call void @proto_register_field_array(i32 noundef %4, ptr noundef @proto_register_aeron.hf, i32 noundef 116)
  call void @proto_register_subtree_array(ptr noundef @proto_register_aeron.ett, i32 noundef 18)
  %5 = load i32, ptr @proto_aeron, align 4
  %6 = call ptr @expert_register_protocol(i32 noundef %5)
  store ptr %6, ptr %2, align 8
  %7 = load ptr, ptr %2, align 8
  call void @expert_register_field_array(ptr noundef %7, ptr noundef @proto_register_aeron.ei, i32 noundef 19)
  %8 = load i32, ptr @proto_aeron, align 4
  %9 = call ptr @prefs_register_protocol(i32 noundef %8, ptr noundef null)
  store ptr %9, ptr %1, align 8
  %10 = load i32, ptr @proto_aeron, align 4
  %11 = call ptr @register_heur_dissector_list_with_description(ptr noundef @.str.225, ptr noundef @.str.226, i32 noundef %10)
  store ptr %11, ptr @aeron_heuristic_subdissector_list, align 8
  %12 = load i32, ptr @proto_aeron, align 4
  %13 = call ptr @register_dissector(ptr noundef @.str.224, ptr noundef @dissect_aeron, i32 noundef %12)
  store ptr %13, ptr @aeron_dissector_handle, align 8
  %14 = load ptr, ptr %1, align 8
  call void @prefs_register_bool_preference(ptr noundef %14, ptr noundef @.str.227, ptr noundef @.str.228, ptr noundef @.str.229, ptr noundef @aeron_sequence_analysis)
  %15 = load ptr, ptr %1, align 8
  call void @prefs_register_bool_preference(ptr noundef %15, ptr noundef @.str.230, ptr noundef @.str.231, ptr noundef @.str.232, ptr noundef @aeron_stream_analysis)
  %16 = load ptr, ptr %1, align 8
  call void @prefs_register_bool_preference(ptr noundef %16, ptr noundef @.str.233, ptr noundef @.str.234, ptr noundef @.str.235, ptr noundef @aeron_reassemble_fragments)
  %17 = load ptr, ptr %1, align 8
  call void @prefs_register_bool_preference(ptr noundef %17, ptr noundef @.str.236, ptr noundef @.str.237, ptr noundef @.str.238, ptr noundef @aeron_use_heuristic_subdissectors)
  call void @register_init_routine(ptr noundef @aeron_channel_id_init)
  %18 = call ptr @wmem_epan_scope()
  %19 = call ptr @wmem_file_scope()
  %20 = call noalias ptr @wmem_tree_new_autoreset(ptr noundef %18, ptr noundef %19)
  store ptr %20, ptr @aeron_frame_info_tree, align 8
  call void @llvm.lifetime.end.p0(i64 8, ptr %2) #15
  call void @llvm.lifetime.end.p0(i64 8, ptr %1) #15
  ret void
}