; Function Attrs: null_pointer_is_valid sspstrong uwtable
define hidden void @proto_register_aeron() local_unnamed_addr #0 {
  %1 = tail call i32 @proto_register_protocol(ptr noundef nonnull @.str.222, ptr noundef nonnull @.str.223, ptr noundef nonnull @.str.224)
  store i32 %1, ptr @proto_aeron, align 4
  tail call void @proto_register_field_array(i32 noundef %1, ptr noundef nonnull @proto_register_aeron.hf, i32 noundef 116)
  tail call void @proto_register_subtree_array(ptr noundef nonnull @proto_register_aeron.ett, i32 noundef 18)
  %2 = load i32, ptr @proto_aeron, align 4
  %3 = tail call ptr @expert_register_protocol(i32 noundef %2)
  tail call void @expert_register_field_array(ptr noundef %3, ptr noundef nonnull @proto_register_aeron.ei, i32 noundef 19)
  %4 = load i32, ptr @proto_aeron, align 4
  %5 = tail call ptr @prefs_register_protocol(i32 noundef %4, ptr noundef null)
  %6 = load i32, ptr @proto_aeron, align 4
  %7 = tail call ptr @register_heur_dissector_list_with_description(ptr noundef nonnull @.str.225, ptr noundef nonnull @.str.226, i32 noundef %6)
  store ptr %7, ptr @aeron_heuristic_subdissector_list, align 8
  %8 = load i32, ptr @proto_aeron, align 4
  %9 = tail call ptr @register_dissector(ptr noundef nonnull @.str.224, ptr noundef nonnull @dissect_aeron, i32 noundef %8)
  store ptr %9, ptr @aeron_dissector_handle, align 8
  tail call void @prefs_register_bool_preference(ptr noundef %5, ptr noundef nonnull @.str.227, ptr noundef nonnull @.str.228, ptr noundef nonnull @.str.229, ptr noundef nonnull @aeron_sequence_analysis)
  tail call void @prefs_register_bool_preference(ptr noundef %5, ptr noundef nonnull @.str.230, ptr noundef nonnull @.str.231, ptr noundef nonnull @.str.232, ptr noundef nonnull @aeron_stream_analysis)
  tail call void @prefs_register_bool_preference(ptr noundef %5, ptr noundef nonnull @.str.233, ptr noundef nonnull @.str.234, ptr noundef nonnull @.str.235, ptr noundef nonnull @aeron_reassemble_fragments)
  tail call void @prefs_register_bool_preference(ptr noundef %5, ptr noundef nonnull @.str.236, ptr noundef nonnull @.str.237, ptr noundef nonnull @.str.238, ptr noundef nonnull @aeron_use_heuristic_subdissectors)
  tail call void @register_init_routine(ptr noundef nonnull @aeron_channel_id_init)
  %10 = tail call ptr @wmem_epan_scope()
  %11 = tail call ptr @wmem_file_scope()
  %12 = tail call noalias ptr @wmem_tree_new_autoreset(ptr noundef %10, ptr noundef %11)
  store ptr %12, ptr @aeron_frame_info_tree, align 8
  ret void
}